target datalayout = "e-m:e-p270:32:32-p271:32:32-p272:64:64-i64:64-i128:128-f80:128-n8:16:32:64-S128"
target triple = "x86_64-pc-linux-gnu"

%"class.icu_77::UVector64" = type { %"class.icu_77::UObject", i32, i32, i32, ptr }
%"class.icu_77::UObject" = type { ptr }

; Function Attrs: inlinehint mustprogress nounwind uwtable
define internal noundef signext i8 @_ZL9U_FAILURE10UErrorCode(i32 noundef %0) #2 {
  %2 = alloca i32, align 4
  store i32 %0, ptr %2, align 4, !tbaa !22
  %3 = load i32, ptr %2, align 4, !tbaa !22
  %4 = icmp sgt i32 %3, 0
  %5 = zext i1 %4 to i8
  ret i8 %5
}

; Function Attrs: mustprogress uwtable
define noundef signext i8 @_ZN6icu_779UVector6414expandCapacityEiR10UErrorCode(ptr noundef nonnull align 8 dereferenceable(32) %0, i32 noundef %1, ptr noundef nonnull align 4 dereferenceable(4) %2) #1 align 2 {
  %4 = alloca i8, align 1
  %5 = alloca ptr, align 8
  %6 = alloca i32, align 4
  %7 = alloca ptr, align 8
  %8 = alloca i32, align 4
  %9 = alloca i32, align 4
  %10 = alloca ptr, align 8
  store ptr %0, ptr %5, align 8, !tbaa !3
  store i32 %1, ptr %6, align 4, !tbaa !21
  store ptr %2, ptr %7, align 8, !tbaa !8
  %11 = load ptr, ptr %5, align 8
  %12 = load ptr, ptr %7, align 8, !tbaa !8
  %13 = load i32, ptr %12, align 4, !tbaa !22
  %14 = call noundef signext i8 @_ZL9U_FAILURE10UErrorCode(i32 noundef %13)
  %15 = icmp ne i8 %14, 0
  br i1 %15, label %16, label %17

16:                                               ; preds = %3
  store i8 0, ptr %4, align 1
  br label %89

17:                                               ; preds = %3
  %18 = load i32, ptr %6, align 4, !tbaa !21
  %19 = icmp slt i32 %18, 0
  br i1 %19, label %20, label %22

20:                                               ; preds = %17
  %21 = load ptr, ptr %7, align 8, !tbaa !8
  store i32 1, ptr %21, align 4, !tbaa !22
  store i8 0, ptr %4, align 1
  br label %89

22:                                               ; preds = %17
  %23 = getelementptr inbounds nuw %"class.icu_77::UVector64", ptr %11, i32 0, i32 2
  %24 = load i32, ptr %23, align 4, !tbaa !16
  %25 = load i32, ptr %6, align 4, !tbaa !21
  %26 = icmp sge i32 %24, %25
  br i1 %26, label %27, label %28

27:                                               ; preds = %22
  store i8 1, ptr %4, align 1
  br label %89

28:                                               ; preds = %22
  %29 = getelementptr inbounds nuw %"class.icu_77::UVector64", ptr %11, i32 0, i32 3
  %30 = load i32, ptr %29, align 8, !tbaa !17
  %31 = icmp sgt i32 %30, 0
  br i1 %31, label %32, label %39

32:                                               ; preds = %28
  %33 = load i32, ptr %6, align 4, !tbaa !21
  %34 = getelementptr inbounds nuw %"class.icu_77::UVector64", ptr %11, i32 0, i32 3
  %35 = load i32, ptr %34, align 8, !tbaa !17
  %36 = icmp sgt i32 %33, %35
  br i1 %36, label %37, label %39

37:                                               ; preds = %32
  %38 = load ptr, ptr %7, align 8, !tbaa !8
  store i32 15, ptr %38, align 4, !tbaa !22
  store i8 0, ptr %4, align 1
  br label %89

39:                                               ; preds = %32, %28
  %40 = getelementptr inbounds nuw %"class.icu_77::UVector64", ptr %11, i32 0, i32 2
  %41 = load i32, ptr %40, align 4, !tbaa !16
  %42 = icmp sgt i32 %41, 1073741823
  br i1 %42, label %43, label %45

43:                                               ; preds = %39
  %44 = load ptr, ptr %7, align 8, !tbaa !8
  store i32 1, ptr %44, align 4, !tbaa !22
  store i8 0, ptr %4, align 1
  br label %89

45:                                               ; preds = %39
  call void @llvm.lifetime.start.p0(i64 4, ptr %8) #10
  %46 = getelementptr inbounds nuw %"class.icu_77::UVector64", ptr %11, i32 0, i32 2
  %47 = load i32, ptr %46, align 4, !tbaa !16
  %48 = mul nsw i32 %47, 2
  store i32 %48, ptr %8, align 4, !tbaa !21
  %49 = load i32, ptr %8, align 4, !tbaa !21
  %50 = load i32, ptr %6, align 4, !tbaa !21
  %51 = icmp slt i32 %49, %50
  br i1 %51, label %52, label %54

52:                                               ; preds = %45
  %53 = load i32, ptr %6, align 4, !tbaa !21
  store i32 %53, ptr %8, align 4, !tbaa !21
  br label %54

54:                                               ; preds = %52, %45
  %55 = getelementptr inbounds nuw %"class.icu_77::UVector64", ptr %11, i32 0, i32 3
  %56 = load i32, ptr %55, align 8, !tbaa !17
  %57 = icmp sgt i32 %56, 0
  br i1 %57, label %58, label %66

58:                                               ; preds = %54
  %59 = load i32, ptr %8, align 4, !tbaa !21
  %60 = getelementptr inbounds nuw %"class.icu_77::UVector64", ptr %11, i32 0, i32 3
  %61 = load i32, ptr %60, align 8, !tbaa !17
  %62 = icmp sgt i32 %59, %61
  br i1 %62, label %63, label %66

63:                                               ; preds = %58
  %64 = getelementptr inbounds nuw %"class.icu_77::UVector64", ptr %11, i32 0, i32 3
  %65 = load i32, ptr %64, align 8, !tbaa !17
  store i32 %65, ptr %8, align 4, !tbaa !21
  br label %66

66:                                               ; preds = %63, %58, %54
  %67 = load i32, ptr %8, align 4, !tbaa !21
  %68 = icmp sgt i32 %67, 268435455
  br i1 %68, label %69, label %71

69:                                               ; preds = %66
  %70 = load ptr, ptr %7, align 8, !tbaa !8
  store i32 1, ptr %70, align 4, !tbaa !22
  store i8 0, ptr %4, align 1
  store i32 1, ptr %9, align 4
  br label %88

71:                                               ; preds = %66
  call void @llvm.lifetime.start.p0(i64 8, ptr %10) #10
  %72 = getelementptr inbounds nuw %"class.icu_77::UVector64", ptr %11, i32 0, i32 4
  %73 = load ptr, ptr %72, align 8, !tbaa !18
  %74 = load i32, ptr %8, align 4, !tbaa !21
  %75 = sext i32 %74 to i64
  %76 = mul i64 8, %75
  %77 = call ptr @uprv_realloc_77(ptr noundef %73, i64 noundef %76) #13
  store ptr %77, ptr %10, align 8, !tbaa !31
  %78 = load ptr, ptr %10, align 8, !tbaa !31
  %79 = icmp eq ptr %78, null
  br i1 %79, label %80, label %82

80:                                               ; preds = %71
  %81 = load ptr, ptr %7, align 8, !tbaa !8
  store i32 7, ptr %81, align 4, !tbaa !22
  store i8 0, ptr %4, align 1
  store i32 1, ptr %9, align 4
  br label %87

82:                                               ; preds = %71
  %83 = load ptr, ptr %10, align 8, !tbaa !31
  %84 = getelementptr inbounds nuw %"class.icu_77::UVector64", ptr %11, i32 0, i32 4
  store ptr %83, ptr %84, align 8, !tbaa !18
  %85 = load i32, ptr %8, align 4, !tbaa !21
  %86 = getelementptr inbounds nuw %"class.icu_77::UVector64", ptr %11, i32 0, i32 2
  store i32 %85, ptr %86, align 4, !tbaa !16
  store i8 1, ptr %4, align 1
  store i32 1, ptr %9, align 4
  br label %87

87:                                               ; preds = %82, %80
  call void @llvm.lifetime.end.p0(i64 8, ptr %10) #10
  br label %88

88:                                               ; preds = %87, %69
  call void @llvm.lifetime.end.p0(i64 4, ptr %8) #10
  br label %89

89:                                               ; preds = %88, %43, %37, %27, %20, %16
  %90 = load i8, ptr %4, align 1
  ret i8 %90
}

; Function Attrs: inlinehint mustprogress uwtable
define linkonce_odr noundef signext i8 @_ZN6icu_779UVector6414ensureCapacityEiR10UErrorCode(ptr noundef nonnull align 8 dereferenceable(32) %0, i32 noundef %1, ptr noundef nonnull align 4 dereferenceable(4) %2) #7 comdat align 2 {
  %4 = alloca i8, align 1
  %5 = alloca ptr, align 8
  %6 = alloca i32, align 4
  %7 = alloca ptr, align 8
  store ptr %0, ptr %5, align 8, !tbaa !3
  store i32 %1, ptr %6, align 4, !tbaa !21
  store ptr %2, ptr %7, align 8, !tbaa !8
  %8 = load ptr, ptr %5, align 8
  %9 = load i32, ptr %6, align 4, !tbaa !21
  %10 = icmp sge i32 %9, 0
  br i1 %10, label %11, label %17

11:                                               ; preds = %3
  %12 = getelementptr inbounds nuw %"class.icu_77::UVector64", ptr %8, i32 0, i32 2
  %13 = load i32, ptr %12, align 4, !tbaa !16
  %14 = load i32, ptr %6, align 4, !tbaa !21
  %15 = icmp sge i32 %13, %14
  br i1 %15, label %16, label %17

16:                                               ; preds = %11
  store i8 1, ptr %4, align 1
  br label %21

17:                                               ; preds = %11, %3
  %18 = load i32, ptr %6, align 4, !tbaa !21
  %19 = load ptr, ptr %7, align 8, !tbaa !8
  %20 = call noundef signext i8 @_ZN6icu_779UVector6414expandCapacityEiR10UErrorCode(ptr noundef nonnull align 8 dereferenceable(32) %8, i32 noundef %18, ptr noundef nonnull align 4 dereferenceable(4) %19)
  store i8 %20, ptr %4, align 1
  br label %21

21:                                               ; preds = %17, %16
  %22 = load i8, ptr %4, align 1
  ret i8 %22
}

; Function Attrs: mustprogress uwtable
define void @_ZN6icu_779UVector6415insertElementAtEliR10UErrorCode(ptr noundef nonnull align 8 dereferenceable(32) %0, i64 noundef %1, i32 noundef %2, ptr noundef nonnull align 4 dereferenceable(4) %3) #1 align 2 {
  %5 = alloca ptr, align 8
  %6 = alloca i64, align 8
  %7 = alloca i32, align 4
  %8 = alloca ptr, align 8
  %9 = alloca i32, align 4
  store ptr %0, ptr %5, align 8, !tbaa !3
  store i64 %1, ptr %6, align 8, !tbaa !24
  store i32 %2, ptr %7, align 4, !tbaa !21
  store ptr %3, ptr %8, align 8, !tbaa !8
  %10 = load ptr, ptr %5, align 8
  %11 = load i32, ptr %7, align 4, !tbaa !21
  %12 = icmp sle i32 0, %11
  br i1 %12, label %13, label %59

13:                                               ; preds = %4
  %14 = load i32, ptr %7, align 4, !tbaa !21
  %15 = getelementptr inbounds nuw %"class.icu_77::UVector64", ptr %10, i32 0, i32 1
  %16 = load i32, ptr %15, align 8, !tbaa !11
  %17 = icmp sle i32 %14, %16
  br i1 %17, label %18, label %59

18:                                               ; preds = %13
  %19 = getelementptr inbounds nuw %"class.icu_77::UVector64", ptr %10, i32 0, i32 1
  %20 = load i32, ptr %19, align 8, !tbaa !11
  %21 = add nsw i32 %20, 1
  %22 = load ptr, ptr %8, align 8, !tbaa !8
  %23 = call noundef signext i8 @_ZN6icu_779UVector6414ensureCapacityEiR10UErrorCode(ptr noundef nonnull align 8 dereferenceable(32) %10, i32 noundef %21, ptr noundef nonnull align 4 dereferenceable(4) %22)
  %24 = icmp ne i8 %23, 0
  br i1 %24, label %25, label %59

25:                                               ; preds = %18
  call void @llvm.lifetime.start.p0(i64 4, ptr %9) #10
  %26 = getelementptr inbounds nuw %"class.icu_77::UVector64", ptr %10, i32 0, i32 1
  %27 = load i32, ptr %26, align 8, !tbaa !11
  store i32 %27, ptr %9, align 4, !tbaa !21
  br label %28

28:                                               ; preds = %46, %25
  %29 = load i32, ptr %9, align 4, !tbaa !21
  %30 = load i32, ptr %7, align 4, !tbaa !21
  %31 = icmp sgt i32 %29, %30
  br i1 %31, label %33, label %32

32:                                               ; preds = %28
  call void @llvm.lifetime.end.p0(i64 4, ptr %9) #10
  br label %49

33:                                               ; preds = %28
  %34 = getelementptr inbounds nuw %"class.icu_77::UVector64", ptr %10, i32 0, i32 4
  %35 = load ptr, ptr %34, align 8, !tbaa !18
  %36 = load i32, ptr %9, align 4, !tbaa !21
  %37 = sub nsw i32 %36, 1
  %38 = sext i32 %37 to i64
  %39 = getelementptr inbounds i64, ptr %35, i64 %38
  %40 = load i64, ptr %39, align 8, !tbaa !24
  %41 = getelementptr inbounds nuw %"class.icu_77::UVector64", ptr %10, i32 0, i32 4
  %42 = load ptr, ptr %41, align 8, !tbaa !18
  %43 = load i32, ptr %9, align 4, !tbaa !21
  %44 = sext i32 %43 to i64
  %45 = getelementptr inbounds i64, ptr %42, i64 %44
  store i64 %40, ptr %45, align 8, !tbaa !24
  br label %46

46:                                               ; preds = %33
  %47 = load i32, ptr %9, align 4, !tbaa !21
  %48 = add nsw i32 %47, -1
  store i32 %48, ptr %9, align 4, !tbaa !21
  br label %28, !llvm.loop !30

49:                                               ; preds = %32
  %50 = load i64, ptr %6, align 8, !tbaa !24
  %51 = getelementptr inbounds nuw %"class.icu_77::UVector64", ptr %10, i32 0, i32 4
  %52 = load ptr, ptr %51, align 8, !tbaa !18
  %53 = load i32, ptr %7, align 4, !tbaa !21
  %54 = sext i32 %53 to i64
  %55 = getelementptr inbounds i64, ptr %52, i64 %54
  store i64 %50, ptr %55, align 8, !tbaa !24
  %56 = getelementptr inbounds nuw %"class.icu_77::UVector64", ptr %10, i32 0, i32 1
  %57 = load i32, ptr %56, align 8, !tbaa !11
  %58 = add nsw i32 %57, 1
  store i32 %58, ptr %56, align 8, !tbaa !11
  br label %59

59:                                               ; preds = %49, %18, %13, %4
  ret void
}