; Function Attrs: mustprogress uwtable
define void @_ZN6icu_779UVector6415insertElementAtEliR10UErrorCode(ptr noundef nonnull align 8 captures(none) dereferenceable(32) %0, i64 noundef %1, i32 noundef %2, ptr noundef nonnull align 4 captures(none) dereferenceable(4) %3) local_unnamed_addr #1 align 2 {
  %5 = icmp sgt i32 %2, -1
  br i1 %5, label %6, label %_ZN6icu_779UVector6414ensureCapacityEiR10UErrorCode.exit.thread

6:                                                ; preds = %4
  %7 = getelementptr inbounds nuw i8, ptr %0, i64 8
  %8 = load i32, ptr %7, align 8, !tbaa !6
  %.not = icmp sgt i32 %2, %8
  br i1 %.not, label %_ZN6icu_779UVector6414ensureCapacityEiR10UErrorCode.exit.thread, label %9

9:                                                ; preds = %6
  %10 = add nuw nsw i32 %8, 1
  %11 = getelementptr inbounds nuw i8, ptr %0, i64 12
  %12 = load i32, ptr %11, align 4
  %.not.i.not = icmp sgt i32 %12, %8
  br i1 %.not.i.not, label %_ZN6icu_779UVector6414ensureCapacityEiR10UErrorCode.exit, label %13

13:                                               ; preds = %9
  %14 = load i32, ptr %3, align 4, !tbaa !16
  %15 = icmp slt i32 %14, 1
  br i1 %15, label %16, label %_ZN6icu_779UVector6414ensureCapacityEiR10UErrorCode.exit.thread

16:                                               ; preds = %13
  %17 = getelementptr inbounds nuw i8, ptr %0, i64 16
  %18 = load i32, ptr %17, align 8, !tbaa !14
  %19 = icmp sgt i32 %18, 0
  %20 = icmp sge i32 %8, %18
  %or.cond.i.i = and i1 %19, %20
  br i1 %or.cond.i.i, label %21, label %22

21:                                               ; preds = %16
  store i32 15, ptr %3, align 4, !tbaa !16
  br label %_ZN6icu_779UVector6414ensureCapacityEiR10UErrorCode.exit.thread

22:                                               ; preds = %16
  %23 = icmp sgt i32 %12, 1073741823
  br i1 %23, label %24, label %25

24:                                               ; preds = %22
  store i32 1, ptr %3, align 4, !tbaa !16
  br label %_ZN6icu_779UVector6414ensureCapacityEiR10UErrorCode.exit.thread

25:                                               ; preds = %22
  %26 = shl nsw i32 %12, 1
  %spec.select.i.i = tail call i32 @llvm.smax.i32(i32 %26, i32 %10)
  %27 = tail call i32 @llvm.smin.i32(i32 %spec.select.i.i, i32 %18)
  %.120.i.i = select i1 %19, i32 %27, i32 %spec.select.i.i
  %28 = icmp sgt i32 %.120.i.i, 268435455
  br i1 %28, label %29, label %30

29:                                               ; preds = %25
  store i32 1, ptr %3, align 4, !tbaa !16
  br label %_ZN6icu_779UVector6414ensureCapacityEiR10UErrorCode.exit.thread

30:                                               ; preds = %25
  %31 = getelementptr inbounds nuw i8, ptr %0, i64 24
  %32 = load ptr, ptr %31, align 8, !tbaa !15
  %33 = zext nneg i32 %.120.i.i to i64
  %34 = shl nuw nsw i64 %33, 3
  %35 = tail call ptr @uprv_realloc_77(ptr noundef %32, i64 noundef %34) #17
  %36 = icmp eq ptr %35, null
  br i1 %36, label %37, label %38

37:                                               ; preds = %30
  store i32 7, ptr %3, align 4, !tbaa !16
  br label %_ZN6icu_779UVector6414ensureCapacityEiR10UErrorCode.exit.thread

38:                                               ; preds = %30
  store ptr %35, ptr %31, align 8, !tbaa !15
  store i32 %.120.i.i, ptr %11, align 4, !tbaa !13
  %.pre = load i32, ptr %7, align 8, !tbaa !6
  br label %_ZN6icu_779UVector6414ensureCapacityEiR10UErrorCode.exit

_ZN6icu_779UVector6414ensureCapacityEiR10UErrorCode.exit: ; preds = %38, %9
  %39 = phi i32 [ %.pre, %38 ], [ %8, %9 ]
  %40 = icmp sgt i32 %39, %2
  %41 = getelementptr inbounds nuw i8, ptr %0, i64 24
  %42 = load ptr, ptr %41, align 8, !tbaa !15
  br i1 %40, label %.lr.ph, label %._crit_edge

.lr.ph:                                           ; preds = %_ZN6icu_779UVector6414ensureCapacityEiR10UErrorCode.exit
  %invariant.gep = getelementptr i8, ptr %42, i64 -8
  %43 = zext nneg i32 %39 to i64
  %44 = zext nneg i32 %2 to i64
  br label %48

._crit_edge:                                      ; preds = %48, %_ZN6icu_779UVector6414ensureCapacityEiR10UErrorCode.exit
  %45 = zext nneg i32 %2 to i64
  %46 = getelementptr inbounds nuw i64, ptr %42, i64 %45
  store i64 %1, ptr %46, align 8, !tbaa !18
  %47 = add nsw i32 %39, 1
  store i32 %47, ptr %7, align 8, !tbaa !6
  br label %_ZN6icu_779UVector6414ensureCapacityEiR10UErrorCode.exit.thread

48:                                               ; preds = %.lr.ph, %48
  %indvars.iv = phi i64 [ %43, %.lr.ph ], [ %indvars.iv.next, %48 ]
  %gep = getelementptr i64, ptr %invariant.gep, i64 %indvars.iv
  %49 = load i64, ptr %gep, align 8, !tbaa !18
  %50 = getelementptr inbounds nuw i64, ptr %42, i64 %indvars.iv
  store i64 %49, ptr %50, align 8, !tbaa !18
  %indvars.iv.next = add nsw i64 %indvars.iv, -1
  %51 = icmp samesign ugt i64 %indvars.iv.next, %44
  br i1 %51, label %48, label %._crit_edge, !llvm.loop !23

_ZN6icu_779UVector6414ensureCapacityEiR10UErrorCode.exit.thread: ; preds = %37, %29, %13, %24, %21, %._crit_edge, %6, %4
  ret void
}